target datalayout = "e-m:e-p270:32:32-p271:32:32-p272:64:64-i64:64-i128:128-f80:128-n8:16:32:64-S128"
target triple = "x86_64-pc-linux-gnu"

%struct._packet_info = type { ptr, ptr, i32, i32, %struct.nstime_t, %struct.nstime_t, %struct.nstime_t, i8, ptr, ptr, ptr, ptr, %struct._address, %struct._address, %struct._address, %struct._address, %struct._address, %struct._address, i32, ptr, i8, [3 x i8], %struct.anon, i32, i32, i32, i32, ptr, i8, ptr, ptr, i16, i16, i32, i32, i16, i32, i32, ptr, ptr, ptr, i8, i8, i16, i16, i16, i32, i16, i16, ptr, ptr, ptr, ptr, ptr, i32, i32 }
%struct.nstime_t = type { i64, i32 }
%struct._address = type { i32, i32, ptr, ptr }
%struct.anon = type { i8, [3 x i8] }
%struct.nvme_cmd_ctx = type { i32, i32, i32, [16 x i32], i32, %struct.nstime_t, %struct.nstime_t, i32, i8, %union.anon, i8 }
%union.anon = type { %struct.anon.1 }
%struct.anon.1 = type { i32, i32, i32, i32, i16, i8, i8, i64, i8 }
%struct.nvme_q_ctx = type { ptr, ptr, ptr, ptr, ptr, i16 }
%struct.anon.3 = type { %union.anon.4, i8 }
%union.anon.4 = type { %struct.anon.6 }
%struct.anon.6 = type { i16 }
%struct.anon.0 = type { i16 }

@.str.5 = private unnamed_addr constant [3 x i8] c"| \00", align 1
@.str.6 = private unnamed_addr constant [27 x i8] c"NVMeOF Data Request for %s\00", align 1
@.str.7 = private unnamed_addr constant [16 x i8] c"Unknown Command\00", align 1
@.str.8 = private unnamed_addr constant [2 x i8] c" \00", align 1
@.str.9 = private unnamed_addr constant [3 x i8] c"%s\00", align 1
@.str.10 = private unnamed_addr constant [8 x i8] c"Unknown\00", align 1
@.str.1749 = private unnamed_addr constant [26 x i8] c"NVMeoF Reserved Page name\00", align 1
@.str.1750 = private unnamed_addr constant [29 x i8] c"IO Command Set Specific Page\00", align 1
@.str.1751 = private unnamed_addr constant [21 x i8] c"Vendor Specific Page\00", align 1
@.str.1752 = private unnamed_addr constant [19 x i8] c"Reserved Page Name\00", align 1

; Function Attrs: null_pointer_is_valid sspstrong uwtable
define internal ptr @get_logpage_name(i32 noundef %0) #0 {
  %2 = alloca ptr, align 8
  %3 = alloca i32, align 4
  store i32 %0, ptr %3, align 4
  %4 = load i32, ptr %3, align 4
  %5 = icmp ugt i32 %4, 112
  br i1 %5, label %6, label %10

6:                                                ; preds = %1
  %7 = load i32, ptr %3, align 4
  %8 = icmp ult i32 %7, 128
  br i1 %8, label %9, label %10

9:                                                ; preds = %6
  store ptr @.str.1749, ptr %2, align 8
  br label %24

10:                                               ; preds = %6, %1
  %11 = load i32, ptr %3, align 4
  %12 = icmp ugt i32 %11, 129
  br i1 %12, label %13, label %17

13:                                               ; preds = %10
  %14 = load i32, ptr %3, align 4
  %15 = icmp ult i32 %14, 192
  br i1 %15, label %16, label %17

16:                                               ; preds = %13
  store ptr @.str.1750, ptr %2, align 8
  br label %24

17:                                               ; preds = %13, %10
  %18 = load i32, ptr %3, align 4
  %19 = icmp uge i32 %18, 192
  br i1 %19, label %20, label %21

20:                                               ; preds = %17
  store ptr @.str.1751, ptr %2, align 8
  br label %24

21:                                               ; preds = %17
  %22 = load i32, ptr %3, align 4
  %23 = call ptr @val_to_str_const(i32 noundef %22, ptr noundef @logpage_tbl, ptr noundef @.str.1752)
  store ptr %23, ptr %2, align 8
  br label %24

24:                                               ; preds = %21, %20, %16, %9
  %25 = load ptr, ptr %2, align 8
  ret ptr %25
}

; Function Attrs: null_pointer_is_valid sspstrong uwtable
define hidden void @nvme_update_transfer_request(ptr noundef %0, ptr noundef %1, ptr noundef %2) #0 {
  %4 = alloca ptr, align 8
  %5 = alloca ptr, align 8
  %6 = alloca ptr, align 8
  store ptr %0, ptr %4, align 8
  store ptr %1, ptr %5, align 8
  store ptr %2, ptr %6, align 8
  %7 = load ptr, ptr %5, align 8
  %8 = getelementptr inbounds nuw %struct.nvme_cmd_ctx, ptr %7, i32 0, i32 8
  %9 = load i8, ptr %8, align 4, !range !6, !noundef !7
  %10 = trunc i8 %9 to i1
  br i1 %10, label %11, label %21

11:                                               ; preds = %3
  %12 = load ptr, ptr %4, align 8
  %13 = getelementptr inbounds nuw %struct._packet_info, ptr %12, i32 0, i32 1
  %14 = load ptr, ptr %13, align 8
  %15 = load ptr, ptr %5, align 8
  %16 = getelementptr inbounds nuw %struct.nvme_cmd_ctx, ptr %15, i32 0, i32 9
  %17 = getelementptr inbounds nuw %struct.anon.3, ptr %16, i32 0, i32 1
  %18 = load i8, ptr %17, align 2
  %19 = zext i8 %18 to i32
  %20 = call ptr @val_to_str_const(i32 noundef %19, ptr noundef @fctype_tbl, ptr noundef @.str.7)
  call void (ptr, i32, ptr, ptr, ...) @col_append_sep_fstr(ptr noundef %14, i32 noundef 25, ptr noundef @.str.5, ptr noundef @.str.6, ptr noundef %20)
  br label %77

21:                                               ; preds = %3
  %22 = load ptr, ptr %6, align 8
  %23 = getelementptr inbounds nuw %struct.nvme_q_ctx, ptr %22, i32 0, i32 5
  %24 = load i16, ptr %23, align 8
  %25 = icmp ne i16 %24, 0
  br i1 %25, label %68, label %26

26:                                               ; preds = %21
  %27 = load ptr, ptr %4, align 8
  %28 = getelementptr inbounds nuw %struct._packet_info, ptr %27, i32 0, i32 1
  %29 = load ptr, ptr %28, align 8
  %30 = load ptr, ptr %5, align 8
  %31 = getelementptr inbounds nuw %struct.nvme_cmd_ctx, ptr %30, i32 0, i32 10
  %32 = load i8, ptr %31, align 8
  %33 = zext i8 %32 to i32
  %34 = call ptr @val_to_str_const(i32 noundef %33, ptr noundef @aq_opc_tbl, ptr noundef @.str.7)
  call void (ptr, i32, ptr, ptr, ...) @col_append_sep_fstr(ptr noundef %29, i32 noundef 25, ptr noundef @.str.5, ptr noundef @.str.6, ptr noundef %34)
  %35 = load ptr, ptr %5, align 8
  %36 = getelementptr inbounds nuw %struct.nvme_cmd_ctx, ptr %35, i32 0, i32 10
  %37 = load i8, ptr %36, align 8
  %38 = zext i8 %37 to i32
  %39 = icmp eq i32 %38, 6
  br i1 %39, label %40, label %50

40:                                               ; preds = %26
  %41 = load ptr, ptr %4, align 8
  %42 = getelementptr inbounds nuw %struct._packet_info, ptr %41, i32 0, i32 1
  %43 = load ptr, ptr %42, align 8
  %44 = load ptr, ptr %5, align 8
  %45 = getelementptr inbounds nuw %struct.nvme_cmd_ctx, ptr %44, i32 0, i32 9
  %46 = getelementptr inbounds nuw %struct.anon.0, ptr %45, i32 0, i32 0
  %47 = load i16, ptr %46, align 8
  %48 = zext i16 %47 to i32
  %49 = call ptr @val_to_str_const(i32 noundef %48, ptr noundef @cns_table, ptr noundef @.str.10)
  call void (ptr, i32, ptr, ptr, ...) @col_append_sep_fstr(ptr noundef %43, i32 noundef 25, ptr noundef @.str.8, ptr noundef @.str.9, ptr noundef %49)
  br label %67

50:                                               ; preds = %26
  %51 = load ptr, ptr %5, align 8
  %52 = getelementptr inbounds nuw %struct.nvme_cmd_ctx, ptr %51, i32 0, i32 10
  %53 = load i8, ptr %52, align 8
  %54 = zext i8 %53 to i32
  %55 = icmp eq i32 %54, 2
  br i1 %55, label %56, label %66

56:                                               ; preds = %50
  %57 = load ptr, ptr %4, align 8
  %58 = getelementptr inbounds nuw %struct._packet_info, ptr %57, i32 0, i32 1
  %59 = load ptr, ptr %58, align 8
  %60 = load ptr, ptr %5, align 8
  %61 = getelementptr inbounds nuw %struct.nvme_cmd_ctx, ptr %60, i32 0, i32 9
  %62 = getelementptr inbounds nuw %struct.anon.1, ptr %61, i32 0, i32 5
  %63 = load i8, ptr %62, align 2
  %64 = zext i8 %63 to i32
  %65 = call ptr @get_logpage_name(i32 noundef %64)
  call void (ptr, i32, ptr, ptr, ...) @col_append_sep_fstr(ptr noundef %59, i32 noundef 25, ptr noundef @.str.8, ptr noundef @.str.9, ptr noundef %65)
  br label %66

66:                                               ; preds = %56, %50
  br label %67

67:                                               ; preds = %66, %40
  br label %77

68:                                               ; preds = %21
  %69 = load ptr, ptr %4, align 8
  %70 = getelementptr inbounds nuw %struct._packet_info, ptr %69, i32 0, i32 1
  %71 = load ptr, ptr %70, align 8
  %72 = load ptr, ptr %5, align 8
  %73 = getelementptr inbounds nuw %struct.nvme_cmd_ctx, ptr %72, i32 0, i32 10
  %74 = load i8, ptr %73, align 8
  %75 = zext i8 %74 to i32
  %76 = call ptr @val_to_str_const(i32 noundef %75, ptr noundef @ioq_opc_tbl, ptr noundef @.str.7)
  call void (ptr, i32, ptr, ptr, ...) @col_append_sep_fstr(ptr noundef %71, i32 noundef 25, ptr noundef @.str.5, ptr noundef @.str.6, ptr noundef %76)
  br label %77

77:                                               ; preds = %11, %68, %67
  ret void
}