; Function Attrs: null_pointer_is_valid sspstrong uwtable
define hidden void @nvme_update_transfer_request(ptr noundef readonly captures(none) %0, ptr noundef readonly captures(none) %1, ptr noundef readonly captures(none) %2) local_unnamed_addr #0 {
  %4 = getelementptr inbounds nuw i8, ptr %1, i64 116
  %5 = load i8, ptr %4, align 4, !range !6, !noundef !7
  %6 = trunc nuw i8 %5 to i1
  br i1 %6, label %7, label %14

7:                                                ; preds = %3
  %8 = getelementptr inbounds nuw i8, ptr %0, i64 8
  %9 = load ptr, ptr %8, align 8
  %10 = getelementptr inbounds nuw i8, ptr %1, i64 122
  %11 = load i8, ptr %10, align 2
  %12 = zext i8 %11 to i32
  %13 = tail call ptr @val_to_str_const(i32 noundef %12, ptr noundef nonnull @fctype_tbl, ptr noundef nonnull @.str.7)
  tail call void (ptr, i32, ptr, ptr, ...) @col_append_sep_fstr(ptr noundef %9, i32 noundef 25, ptr noundef nonnull @.str.5, ptr noundef nonnull @.str.6, ptr noundef %13)
  br label %44

14:                                               ; preds = %3
  %15 = getelementptr inbounds nuw i8, ptr %2, i64 40
  %16 = load i16, ptr %15, align 8
  %.not = icmp eq i16 %16, 0
  %17 = getelementptr inbounds nuw i8, ptr %0, i64 8
  %18 = load ptr, ptr %17, align 8
  %19 = getelementptr inbounds nuw i8, ptr %1, i64 160
  %20 = load i8, ptr %19, align 8
  %21 = zext i8 %20 to i32
  br i1 %.not, label %22, label %42

22:                                               ; preds = %14
  %23 = tail call ptr @val_to_str_const(i32 noundef %21, ptr noundef nonnull @aq_opc_tbl, ptr noundef nonnull @.str.7)
  tail call void (ptr, i32, ptr, ptr, ...) @col_append_sep_fstr(ptr noundef %18, i32 noundef 25, ptr noundef nonnull @.str.5, ptr noundef nonnull @.str.6, ptr noundef %23)
  %24 = load i8, ptr %19, align 8
  switch i8 %24, label %44 [
    i8 6, label %25
    i8 2, label %31
  ]

25:                                               ; preds = %22
  %26 = load ptr, ptr %17, align 8
  %27 = getelementptr inbounds nuw i8, ptr %1, i64 120
  %28 = load i16, ptr %27, align 8
  %29 = zext i16 %28 to i32
  %30 = tail call ptr @val_to_str_const(i32 noundef %29, ptr noundef nonnull @cns_table, ptr noundef nonnull @.str.10)
  tail call void (ptr, i32, ptr, ptr, ...) @col_append_sep_fstr(ptr noundef %26, i32 noundef 25, ptr noundef nonnull @.str.8, ptr noundef nonnull @.str.9, ptr noundef %30)
  br label %44

31:                                               ; preds = %22
  %32 = load ptr, ptr %17, align 8
  %33 = getelementptr inbounds nuw i8, ptr %1, i64 138
  %34 = load i8, ptr %33, align 2
  %35 = zext i8 %34 to i32
  %or.cond.i = icmp sgt i8 %34, 112
  br i1 %or.cond.i, label %get_logpage_name.exit, label %36

36:                                               ; preds = %31
  %37 = add i8 %34, 126
  %or.cond3.i = icmp ult i8 %37, 62
  br i1 %or.cond3.i, label %get_logpage_name.exit, label %38

38:                                               ; preds = %36
  %39 = icmp ugt i8 %34, -65
  br i1 %39, label %get_logpage_name.exit, label %40

40:                                               ; preds = %38
  %41 = tail call ptr @val_to_str_const(i32 noundef %35, ptr noundef nonnull @logpage_tbl, ptr noundef nonnull @.str.1752)
  br label %get_logpage_name.exit

get_logpage_name.exit:                            ; preds = %31, %36, %38, %40
  %.0.i = phi ptr [ %41, %40 ], [ @.str.1749, %31 ], [ @.str.1750, %36 ], [ @.str.1751, %38 ]
  tail call void (ptr, i32, ptr, ptr, ...) @col_append_sep_fstr(ptr noundef %32, i32 noundef 25, ptr noundef nonnull @.str.8, ptr noundef nonnull @.str.9, ptr noundef %.0.i)
  br label %44

42:                                               ; preds = %14
  %43 = tail call ptr @val_to_str_const(i32 noundef %21, ptr noundef nonnull @ioq_opc_tbl, ptr noundef nonnull @.str.7)
  tail call void (ptr, i32, ptr, ptr, ...) @col_append_sep_fstr(ptr noundef %18, i32 noundef 25, ptr noundef nonnull @.str.5, ptr noundef nonnull @.str.6, ptr noundef %43)
  br label %44

44:                                               ; preds = %22, %25, %get_logpage_name.exit, %42, %7
  ret void
}